; Function Attrs: mustprogress nounwind uwtable
define internal fastcc void @_ZN12_GLOBAL__N_115padToSameLengthIN9__gnu_cxx17__normal_iteratorIPNSt7__cxx1112basic_stringIcSt11char_traitsIcESaIcEEESt6vectorIS8_SaIS8_EEEEEEvT_SE_(ptr %0, ptr readnone %1) unnamed_addr #0 {
  %3 = alloca %"class.std::__cxx11::basic_string", align 8
  %4 = alloca %"class.std::allocator", align 1
  %.not15 = icmp eq ptr %0, %1
  br i1 %.not15, label %._crit_edge, label %.lr.ph

.lr.ph:                                           ; preds = %2, %.lr.ph
  %.017 = phi i64 [ %.sroa.speculated, %.lr.ph ], [ 0, %2 ]
  %.sroa.06.016 = phi ptr [ %6, %.lr.ph ], [ %0, %2 ]
  %5 = tail call noundef i64 @_ZNKSt7__cxx1112basic_stringIcSt11char_traitsIcESaIcEE4sizeEv(ptr noundef nonnull align 8 dereferenceable(32) %.sroa.06.016) #19
  %.sroa.speculated = tail call i64 @llvm.umax.i64(i64 %.017, i64 %5)
  %6 = getelementptr inbounds nuw i8, ptr %.sroa.06.016, i64 32
  %.not = icmp eq ptr %6, %1
  br i1 %.not, label %.lr.ph20, label %.lr.ph, !llvm.loop !247

.lr.ph20:                                         ; preds = %.lr.ph, %.lr.ph20
  %.sroa.0.019 = phi ptr [ %11, %.lr.ph20 ], [ %0, %.lr.ph ]
  %7 = call noundef i64 @_ZNKSt7__cxx1112basic_stringIcSt11char_traitsIcESaIcEE4sizeEv(ptr noundef nonnull align 8 dereferenceable(32) %.sroa.0.019) #19
  %8 = sub i64 %.sroa.speculated, %7
  call void @_ZNSaIcEC1Ev(ptr noundef nonnull align 1 dereferenceable(1) %4) #19
  %9 = call noundef ptr @_ZNSt7__cxx1112basic_stringIcSt11char_traitsIcESaIcEE13_M_local_dataEv(ptr noundef nonnull align 8 dereferenceable(32) %3) #19
  call void @_ZNSt7__cxx1112basic_stringIcSt11char_traitsIcESaIcEE12_Alloc_hiderC1EPcRKS3_(ptr noundef nonnull align 8 dereferenceable(32) %3, ptr noundef %9, ptr noundef nonnull align 1 dereferenceable(1) %4) #19
  call void @_ZNSt7__cxx1112basic_stringIcSt11char_traitsIcESaIcEE12_M_constructEmc(ptr noundef nonnull align 8 dereferenceable(32) %3, i64 noundef %8, i8 noundef signext 32) #19
  %10 = call noundef nonnull align 8 dereferenceable(32) ptr @_ZNSt7__cxx1112basic_stringIcSt11char_traitsIcESaIcEEpLERKS4_(ptr noundef nonnull align 8 dereferenceable(32) %.sroa.0.019, ptr noundef nonnull align 8 dereferenceable(32) %3) #19
  call void @_ZNSt7__cxx1112basic_stringIcSt11char_traitsIcESaIcEED1Ev(ptr noundef nonnull align 8 dereferenceable(32) %3) #19
  call void @_ZNSaIcED1Ev(ptr noundef nonnull align 1 dereferenceable(1) %4) #19
  %11 = getelementptr inbounds nuw i8, ptr %.sroa.0.019, i64 32
  %.not14 = icmp eq ptr %11, %1
  br i1 %.not14, label %._crit_edge, label %.lr.ph20, !llvm.loop !248

._crit_edge:                                      ; preds = %.lr.ph20, %2
  ret void
}